; Function Attrs: nounwind sspstrong uwtable
define internal i64 @mTrueClass_to_json(i32 noundef %0, ptr readnone captures(none) %1, i64 %2) #0 {
  %or.cond.i = icmp ugt i32 %0, 1
  br i1 %or.cond.i, label %4, label %rb_check_arity.exit

4:                                                ; preds = %3
  tail call void @rb_error_arity(i32 noundef %0, i32 noundef 0, i32 noundef 1) #26
  unreachable

rb_check_arity.exit:                              ; preds = %3
  %5 = tail call i64 @rb_utf8_str_new_static(ptr noundef nonnull @.str.84, i64 noundef 4) #22
  ret i64 %5
}